target datalayout = "e-m:e-p270:32:32-p271:32:32-p272:64:64-i64:64-i128:128-f80:128-n8:16:32:64-S128"
target triple = "x86_64-pc-linux-gnu"

%struct.mbedtls_ssl_context = type { ptr, i32, i32, i32, i32, i32, ptr, ptr, ptr, ptr, ptr, ptr, ptr, ptr, ptr, ptr, ptr, ptr, ptr, ptr, ptr, ptr, ptr, ptr, ptr, ptr, ptr, ptr, ptr, ptr, ptr, ptr, ptr, i32, i64, i64, i16, i64, i64, i64, i64, i32, i32, i8, i8, i32, i8, ptr, ptr, ptr, ptr, ptr, ptr, ptr, i32, i64, i64, [8 x i8], i16, ptr, ptr, ptr, i64, i32, i64, [12 x i8], [12 x i8], [32 x i8], i8, i8, ptr, ptr, %union.mbedtls_ssl_user_data_t }
%union.mbedtls_ssl_user_data_t = type { i64 }
%struct.mbedtls_ssl_handshake_params = type { i8, i8, i8, i8, i8, i32, i8, i8, i8, i8, ptr, ptr, ptr, ptr, ptr, i8, i8, i8, i8, i16, i16, [20 x i16], ptr, ptr, %struct.mbedtls_dhm_context, %struct.mbedtls_ecdh_context, i16, i64, i32, i8, [1024 x i8], i64, ptr, ptr, i64, i16, ptr, ptr, ptr, ptr, %struct.anon, ptr, i16, i8, i32, i32, i32, ptr, ptr, ptr, i32, ptr, [8 x i8], i8, [32 x i8], i8, i16, %struct.mbedtls_md_context_t, %struct.mbedtls_md_context_t, i16, i8, %union.anon.1, [64 x i8], [1076 x i8], i64, i32, i32, i8, ptr, ptr, %union.anon.4, %struct.mbedtls_ssl_tls13_handshake_secrets, ptr, i64, ptr }
%struct.mbedtls_dhm_context = type { %struct.mbedtls_mpi, %struct.mbedtls_mpi, %struct.mbedtls_mpi, %struct.mbedtls_mpi, %struct.mbedtls_mpi, %struct.mbedtls_mpi, %struct.mbedtls_mpi, %struct.mbedtls_mpi, %struct.mbedtls_mpi, %struct.mbedtls_mpi }
%struct.mbedtls_mpi = type { ptr, i16, i16 }
%struct.mbedtls_ecdh_context = type { i8, i32, i32, %union.anon }
%union.anon = type { %struct.mbedtls_ecdh_context_mbed }
%struct.mbedtls_ecdh_context_mbed = type { %struct.mbedtls_ecp_group, %struct.mbedtls_mpi, %struct.mbedtls_ecp_point, %struct.mbedtls_ecp_point, %struct.mbedtls_mpi }
%struct.mbedtls_ecp_group = type { i32, %struct.mbedtls_mpi, %struct.mbedtls_mpi, %struct.mbedtls_mpi, %struct.mbedtls_ecp_point, %struct.mbedtls_mpi, i64, i64, i32, ptr, ptr, ptr, ptr, ptr, i64 }
%struct.mbedtls_ecp_point = type { %struct.mbedtls_mpi, %struct.mbedtls_mpi, %struct.mbedtls_mpi }
%struct.anon = type { i64, i8, [4 x %struct.mbedtls_ssl_hs_buffer], %struct.anon.0 }
%struct.mbedtls_ssl_hs_buffer = type { i8, ptr, i64 }
%struct.anon.0 = type { ptr, i64, i32 }
%struct.mbedtls_md_context_t = type { ptr, ptr, ptr }
%union.anon.1 = type { %struct.anon.2 }
%struct.anon.2 = type { i8, [64 x i8], i64 }
%union.anon.4 = type { [64 x i8] }
%struct.mbedtls_ssl_tls13_handshake_secrets = type { [64 x i8], [64 x i8] }

@.str = private unnamed_addr constant [130 x i8] c"generated/home/dtcxzyw/WorkSpace/Projects/compilers/llvm-opt-benchmark/bench/lief/bench_build/mbed_src/library/ssl_tls13_server.c\00", align 1
@.str.83 = private unnamed_addr constant [29 x i8] c"=> write hello retry request\00", align 1
@.str.84 = private unnamed_addr constant [29 x i8] c"<= write hello retry request\00", align 1
@.str.85 = private unnamed_addr constant [14 x i8] c"Too many HRRs\00", align 1
@.str.86 = private unnamed_addr constant [25 x i8] c"Reset transcript for HRR\00", align 1
@.str.87 = private unnamed_addr constant [37 x i8] c"mbedtls_ssl_reset_transcript_for_hrr\00", align 1

; Function Attrs: inlinehint nounwind uwtable
define internal void @mbedtls_ssl_handshake_set_state(ptr noundef %0, i32 noundef %1) #3 {
  %3 = alloca ptr, align 8
  %4 = alloca i32, align 4
  store ptr %0, ptr %3, align 8, !tbaa !3
  store i32 %1, ptr %4, align 4, !tbaa !8
  %5 = load i32, ptr %4, align 4, !tbaa !8
  %6 = load ptr, ptr %3, align 8, !tbaa !3
  %7 = getelementptr inbounds nuw %struct.mbedtls_ssl_context, ptr %6, i32 0, i32 1
  store i32 %5, ptr %7, align 8, !tbaa !10
  ret void
}

; Function Attrs: nounwind uwtable
define internal i32 @ssl_tls13_prepare_hello_retry_request(ptr noundef %0) #0 {
  %2 = alloca i32, align 4
  %3 = alloca ptr, align 8
  %4 = alloca i32, align 4
  %5 = alloca i32, align 4
  store ptr %0, ptr %3, align 8, !tbaa !3
  call void @llvm.lifetime.start.p0(i64 4, ptr %4) #10
  store i32 -110, ptr %4, align 4, !tbaa !8
  %6 = load ptr, ptr %3, align 8, !tbaa !3
  %7 = getelementptr inbounds nuw %struct.mbedtls_ssl_context, ptr %6, i32 0, i32 16
  %8 = load ptr, ptr %7, align 8, !tbaa !19
  %9 = getelementptr inbounds nuw %struct.mbedtls_ssl_handshake_params, ptr %8, i32 0, i32 16
  %10 = load i8, ptr %9, align 1, !tbaa !46
  %11 = icmp ne i8 %10, 0
  br i1 %11, label %12, label %15

12:                                               ; preds = %1
  %13 = load ptr, ptr %3, align 8, !tbaa !3
  call void (ptr, i32, ptr, i32, ptr, ...) @mbedtls_debug_print_msg(ptr noundef %13, i32 noundef 1, ptr noundef @.str, i32 noundef 2467, ptr noundef @.str.85)
  %14 = load ptr, ptr %3, align 8, !tbaa !3
  call void @mbedtls_ssl_pend_fatal_alert(ptr noundef %14, i8 noundef zeroext 40, i32 noundef -28160)
  store i32 -28160, ptr %2, align 4
  store i32 1, ptr %5, align 4
  br label %27

15:                                               ; preds = %1
  %16 = load ptr, ptr %3, align 8, !tbaa !3
  call void (ptr, i32, ptr, i32, ptr, ...) @mbedtls_debug_print_msg(ptr noundef %16, i32 noundef 4, ptr noundef @.str, i32 noundef 2476, ptr noundef @.str.86)
  %17 = load ptr, ptr %3, align 8, !tbaa !3
  %18 = call i32 @mbedtls_ssl_reset_transcript_for_hrr(ptr noundef %17)
  store i32 %18, ptr %4, align 4, !tbaa !8
  %19 = load i32, ptr %4, align 4, !tbaa !8
  %20 = icmp ne i32 %19, 0
  br i1 %20, label %21, label %25

21:                                               ; preds = %15
  %22 = load ptr, ptr %3, align 8, !tbaa !3
  %23 = load i32, ptr %4, align 4, !tbaa !8
  call void @mbedtls_debug_print_ret(ptr noundef %22, i32 noundef 1, ptr noundef @.str, i32 noundef 2479, ptr noundef @.str.87, i32 noundef %23)
  %24 = load i32, ptr %4, align 4, !tbaa !8
  store i32 %24, ptr %2, align 4
  store i32 1, ptr %5, align 4
  br label %27

25:                                               ; preds = %15
  %26 = load ptr, ptr %3, align 8, !tbaa !3
  call void @mbedtls_ssl_session_reset_msg_layer(ptr noundef %26, i32 noundef 0)
  store i32 0, ptr %2, align 4
  store i32 1, ptr %5, align 4
  br label %27

27:                                               ; preds = %25, %21, %12
  call void @llvm.lifetime.end.p0(i64 4, ptr %4) #10
  %28 = load i32, ptr %2, align 4
  ret i32 %28
}

; Function Attrs: nounwind uwtable
define internal i32 @ssl_tls13_write_hello_retry_request(ptr noundef %0) #0 {
  %2 = alloca ptr, align 8
  %3 = alloca i32, align 4
  %4 = alloca ptr, align 8
  %5 = alloca i64, align 8
  %6 = alloca i64, align 8
  store ptr %0, ptr %2, align 8, !tbaa !3
  call void @llvm.lifetime.start.p0(i64 4, ptr %3) #10
  store i32 -110, ptr %3, align 4, !tbaa !8
  call void @llvm.lifetime.start.p0(i64 8, ptr %4) #10
  call void @llvm.lifetime.start.p0(i64 8, ptr %5) #10
  call void @llvm.lifetime.start.p0(i64 8, ptr %6) #10
  %7 = load ptr, ptr %2, align 8, !tbaa !3
  call void (ptr, i32, ptr, i32, ptr, ...) @mbedtls_debug_print_msg(ptr noundef %7, i32 noundef 2, ptr noundef @.str, i32 noundef 2494, ptr noundef @.str.83)
  br label %8

8:                                                ; preds = %1
  %9 = load ptr, ptr %2, align 8, !tbaa !3
  %10 = call i32 @ssl_tls13_prepare_hello_retry_request(ptr noundef %9)
  store i32 %10, ptr %3, align 4, !tbaa !8
  %11 = load i32, ptr %3, align 4, !tbaa !8
  %12 = icmp ne i32 %11, 0
  br i1 %12, label %13, label %14

13:                                               ; preds = %8
  br label %66

14:                                               ; preds = %8
  br label %15

15:                                               ; preds = %14
  br label %16

16:                                               ; preds = %15
  br label %17

17:                                               ; preds = %16
  %18 = load ptr, ptr %2, align 8, !tbaa !3
  %19 = call i32 @mbedtls_ssl_start_handshake_msg(ptr noundef %18, i8 noundef zeroext 2, ptr noundef %4, ptr noundef %5)
  store i32 %19, ptr %3, align 4, !tbaa !8
  %20 = load i32, ptr %3, align 4, !tbaa !8
  %21 = icmp ne i32 %20, 0
  br i1 %21, label %22, label %23

22:                                               ; preds = %17
  br label %66

23:                                               ; preds = %17
  br label %24

24:                                               ; preds = %23
  br label %25

25:                                               ; preds = %24
  br label %26

26:                                               ; preds = %25
  %27 = load ptr, ptr %2, align 8, !tbaa !3
  %28 = load ptr, ptr %4, align 8, !tbaa !41
  %29 = load ptr, ptr %4, align 8, !tbaa !41
  %30 = load i64, ptr %5, align 8, !tbaa !42
  %31 = getelementptr inbounds nuw i8, ptr %29, i64 %30
  %32 = call i32 @ssl_tls13_write_server_hello_body(ptr noundef %27, ptr noundef %28, ptr noundef %31, ptr noundef %6, i32 noundef 1)
  store i32 %32, ptr %3, align 4, !tbaa !8
  %33 = load i32, ptr %3, align 4, !tbaa !8
  %34 = icmp ne i32 %33, 0
  br i1 %34, label %35, label %36

35:                                               ; preds = %26
  br label %66

36:                                               ; preds = %26
  br label %37

37:                                               ; preds = %36
  br label %38

38:                                               ; preds = %37
  br label %39

39:                                               ; preds = %38
  %40 = load ptr, ptr %2, align 8, !tbaa !3
  %41 = load ptr, ptr %4, align 8, !tbaa !41
  %42 = load i64, ptr %6, align 8, !tbaa !42
  %43 = call i32 @mbedtls_ssl_add_hs_msg_to_checksum(ptr noundef %40, i32 noundef 2, ptr noundef %41, i64 noundef %42)
  store i32 %43, ptr %3, align 4, !tbaa !8
  %44 = load i32, ptr %3, align 4, !tbaa !8
  %45 = icmp ne i32 %44, 0
  br i1 %45, label %46, label %47

46:                                               ; preds = %39
  br label %66

47:                                               ; preds = %39
  br label %48

48:                                               ; preds = %47
  br label %49

49:                                               ; preds = %48
  br label %50

50:                                               ; preds = %49
  %51 = load ptr, ptr %2, align 8, !tbaa !3
  %52 = load i64, ptr %5, align 8, !tbaa !42
  %53 = load i64, ptr %6, align 8, !tbaa !42
  %54 = call i32 @mbedtls_ssl_finish_handshake_msg(ptr noundef %51, i64 noundef %52, i64 noundef %53)
  store i32 %54, ptr %3, align 4, !tbaa !8
  %55 = load i32, ptr %3, align 4, !tbaa !8
  %56 = icmp ne i32 %55, 0
  br i1 %56, label %57, label %58

57:                                               ; preds = %50
  br label %66

58:                                               ; preds = %50
  br label %59

59:                                               ; preds = %58
  br label %60

60:                                               ; preds = %59
  %61 = load ptr, ptr %2, align 8, !tbaa !3
  %62 = getelementptr inbounds nuw %struct.mbedtls_ssl_context, ptr %61, i32 0, i32 16
  %63 = load ptr, ptr %62, align 8, !tbaa !19
  %64 = getelementptr inbounds nuw %struct.mbedtls_ssl_handshake_params, ptr %63, i32 0, i32 16
  store i8 1, ptr %64, align 1, !tbaa !46
  %65 = load ptr, ptr %2, align 8, !tbaa !3
  call void @mbedtls_ssl_handshake_set_state(ptr noundef %65, i32 noundef 26)
  br label %66

66:                                               ; preds = %60, %57, %46, %35, %22, %13
  %67 = load ptr, ptr %2, align 8, !tbaa !3
  call void (ptr, i32, ptr, i32, ptr, ...) @mbedtls_debug_print_msg(ptr noundef %67, i32 noundef 2, ptr noundef @.str, i32 noundef 2527, ptr noundef @.str.84)
  %68 = load i32, ptr %3, align 4, !tbaa !8
  call void @llvm.lifetime.end.p0(i64 8, ptr %6) #10
  call void @llvm.lifetime.end.p0(i64 8, ptr %5) #10
  call void @llvm.lifetime.end.p0(i64 8, ptr %4) #10
  call void @llvm.lifetime.end.p0(i64 4, ptr %3) #10
  ret i32 %68
}