; Function Attrs: nounwind uwtable
define internal fastcc i32 @ssl_tls13_write_hello_retry_request(ptr noundef %0) unnamed_addr #0 {
  %2 = alloca ptr, align 8
  %3 = alloca i64, align 8
  %4 = alloca i64, align 8
  call void @llvm.lifetime.start.p0(i64 8, ptr nonnull %2) #9
  call void @llvm.lifetime.start.p0(i64 8, ptr nonnull %3) #9
  call void @llvm.lifetime.start.p0(i64 8, ptr nonnull %4) #9
  tail call void (ptr, i32, ptr, i32, ptr, ...) @mbedtls_debug_print_msg(ptr noundef %0, i32 noundef 2, ptr noundef nonnull @.str, i32 noundef 2494, ptr noundef nonnull @.str.83) #9
  %5 = getelementptr inbounds nuw i8, ptr %0, i64 112
  %6 = load ptr, ptr %5, align 8, !tbaa !16
  %7 = getelementptr inbounds nuw i8, ptr %6, i64 57
  %8 = load i8, ptr %7, align 1, !tbaa !59
  %.not.i = icmp eq i8 %8, 0
  br i1 %.not.i, label %10, label %9

9:                                                ; preds = %1
  tail call void (ptr, i32, ptr, i32, ptr, ...) @mbedtls_debug_print_msg(ptr noundef nonnull %0, i32 noundef 1, ptr noundef nonnull @.str, i32 noundef 2467, ptr noundef nonnull @.str.85) #9
  tail call void @mbedtls_ssl_pend_fatal_alert(ptr noundef nonnull %0, i8 noundef zeroext 40, i32 noundef -28160) #9
  br label %ssl_tls13_prepare_hello_retry_request.exit.thread

10:                                               ; preds = %1
  tail call void (ptr, i32, ptr, i32, ptr, ...) @mbedtls_debug_print_msg(ptr noundef nonnull %0, i32 noundef 4, ptr noundef nonnull @.str, i32 noundef 2476, ptr noundef nonnull @.str.86) #9
  %11 = tail call i32 @mbedtls_ssl_reset_transcript_for_hrr(ptr noundef nonnull %0) #9
  %.not11.i = icmp eq i32 %11, 0
  br i1 %.not11.i, label %13, label %12

12:                                               ; preds = %10
  tail call void @mbedtls_debug_print_ret(ptr noundef nonnull %0, i32 noundef 1, ptr noundef nonnull @.str, i32 noundef 2479, ptr noundef nonnull @.str.87, i32 noundef %11) #9
  br label %ssl_tls13_prepare_hello_retry_request.exit.thread

13:                                               ; preds = %10
  tail call void @mbedtls_ssl_session_reset_msg_layer(ptr noundef nonnull %0, i32 noundef 0) #9
  %14 = call i32 @mbedtls_ssl_start_handshake_msg(ptr noundef nonnull %0, i8 noundef zeroext 2, ptr noundef nonnull %2, ptr noundef nonnull %3) #9
  %.not19 = icmp eq i32 %14, 0
  br i1 %.not19, label %15, label %ssl_tls13_prepare_hello_retry_request.exit.thread

15:                                               ; preds = %13
  %16 = load ptr, ptr %2, align 8, !tbaa !38
  %17 = load i64, ptr %3, align 8, !tbaa !39
  %18 = getelementptr inbounds nuw i8, ptr %16, i64 %17
  %19 = call fastcc i32 @ssl_tls13_write_server_hello_body(ptr noundef nonnull %0, ptr noundef %16, ptr noundef %18, ptr noundef %4, i32 noundef 1)
  %.not20 = icmp eq i32 %19, 0
  br i1 %.not20, label %20, label %ssl_tls13_prepare_hello_retry_request.exit.thread

20:                                               ; preds = %15
  %21 = load ptr, ptr %2, align 8, !tbaa !38
  %22 = load i64, ptr %4, align 8, !tbaa !39
  %23 = call i32 @mbedtls_ssl_add_hs_msg_to_checksum(ptr noundef nonnull %0, i32 noundef 2, ptr noundef %21, i64 noundef %22) #9
  %.not21 = icmp eq i32 %23, 0
  br i1 %.not21, label %24, label %ssl_tls13_prepare_hello_retry_request.exit.thread

24:                                               ; preds = %20
  %25 = load i64, ptr %3, align 8, !tbaa !39
  %26 = call i32 @mbedtls_ssl_finish_handshake_msg(ptr noundef nonnull %0, i64 noundef %25, i64 noundef %22) #9
  %.not22 = icmp eq i32 %26, 0
  br i1 %.not22, label %27, label %ssl_tls13_prepare_hello_retry_request.exit.thread

27:                                               ; preds = %24
  %28 = load ptr, ptr %5, align 8, !tbaa !16
  %29 = getelementptr inbounds nuw i8, ptr %28, i64 57
  store i8 1, ptr %29, align 1, !tbaa !59
  %30 = getelementptr inbounds nuw i8, ptr %0, i64 8
  store i32 26, ptr %30, align 8, !tbaa !3
  br label %ssl_tls13_prepare_hello_retry_request.exit.thread

ssl_tls13_prepare_hello_retry_request.exit.thread: ; preds = %12, %9, %24, %20, %15, %13, %27
  %.0 = phi i32 [ %14, %13 ], [ %19, %15 ], [ %23, %20 ], [ %26, %24 ], [ 0, %27 ], [ %11, %12 ], [ -28160, %9 ]
  call void (ptr, i32, ptr, i32, ptr, ...) @mbedtls_debug_print_msg(ptr noundef nonnull %0, i32 noundef 2, ptr noundef nonnull @.str, i32 noundef 2527, ptr noundef nonnull @.str.84) #9
  call void @llvm.lifetime.end.p0(i64 8, ptr nonnull %4) #9
  call void @llvm.lifetime.end.p0(i64 8, ptr nonnull %3) #9
  call void @llvm.lifetime.end.p0(i64 8, ptr nonnull %2) #9
  ret i32 %.0
}